target datalayout = "e-m:e-p270:32:32-p271:32:32-p272:64:64-i64:64-f80:128-n8:16:32:64-S128"
target triple = "x86_64-pc-linux-gnu"

%struct.student = type { i32, i32, i32, i32, %struct.student* }

@.str = private unnamed_addr constant [3 x i8] c"%d\00", align 1
@.str.1 = private unnamed_addr constant [7 x i8] c"%d%d%d\00", align 1
@.str.2 = private unnamed_addr constant [7 x i8] c"%d %d\0A\00", align 1

; Function Attrs: noinline nounwind uwtable
define dso_local %struct.student* @creat() #0 {
  %1 = alloca %struct.student*, align 8
  %2 = alloca %struct.student*, align 8
  %3 = alloca %struct.student*, align 8
  %4 = alloca i32, align 4
  %5 = alloca i32, align 4
  %6 = call noalias i8* @malloc(i64 100) #3
  %7 = bitcast i8* %6 to %struct.student*
  store %struct.student* %7, %struct.student** %3, align 8
  store %struct.student* %7, %struct.student** %2, align 8
  %8 = call i32 (i8*, ...) @__isoc99_scanf(i8* getelementptr inbounds ([3 x i8], [3 x i8]* @.str, i64 0, i64 0), i32* %4)
  store %struct.student* null, %struct.student** %1, align 8
  store i32 0, i32* %5, align 4
  br label %9

9:                                                ; preds = %42, %0
  %10 = load i32, i32* %5, align 4
  %11 = load i32, i32* %4, align 4
  %12 = icmp slt i32 %10, %11
  br i1 %12, label %13, label %45

13:                                               ; preds = %9
  %14 = load %struct.student*, %struct.student** %2, align 8
  %15 = getelementptr inbounds %struct.student, %struct.student* %14, i32 0, i32 0
  %16 = load %struct.student*, %struct.student** %2, align 8
  %17 = getelementptr inbounds %struct.student, %struct.student* %16, i32 0, i32 1
  %18 = load %struct.student*, %struct.student** %2, align 8
  %19 = getelementptr inbounds %struct.student, %struct.student* %18, i32 0, i32 2
  %20 = call i32 (i8*, ...) @__isoc99_scanf(i8* getelementptr inbounds ([7 x i8], [7 x i8]* @.str.1, i64 0, i64 0), i32* %15, i32* %17, i32* %19)
  %21 = load %struct.student*, %struct.student** %2, align 8
  %22 = getelementptr inbounds %struct.student, %struct.student* %21, i32 0, i32 1
  %23 = load i32, i32* %22, align 4
  %24 = load %struct.student*, %struct.student** %2, align 8
  %25 = getelementptr inbounds %struct.student, %struct.student* %24, i32 0, i32 2
  %26 = load i32, i32* %25, align 8
  %27 = add nsw i32 %23, %26
  %28 = load %struct.student*, %struct.student** %2, align 8
  %29 = getelementptr inbounds %struct.student, %struct.student* %28, i32 0, i32 3
  store i32 %27, i32* %29, align 4
  %30 = load i32, i32* %5, align 4
  %31 = icmp eq i32 %30, 0
  br i1 %31, label %32, label %34

32:                                               ; preds = %13
  %33 = load %struct.student*, %struct.student** %2, align 8
  store %struct.student* %33, %struct.student** %1, align 8
  br label %38

34:                                               ; preds = %13
  %35 = load %struct.student*, %struct.student** %2, align 8
  %36 = load %struct.student*, %struct.student** %3, align 8
  %37 = getelementptr inbounds %struct.student, %struct.student* %36, i32 0, i32 4
  store %struct.student* %35, %struct.student** %37, align 8
  br label %38

38:                                               ; preds = %34, %32
  %39 = load %struct.student*, %struct.student** %2, align 8
  store %struct.student* %39, %struct.student** %3, align 8
  %40 = call noalias i8* @malloc(i64 100) #3
  %41 = bitcast i8* %40 to %struct.student*
  store %struct.student* %41, %struct.student** %2, align 8
  br label %42

42:                                               ; preds = %38
  %43 = load i32, i32* %5, align 4
  %44 = add nsw i32 %43, 1
  store i32 %44, i32* %5, align 4
  br label %9

45:                                               ; preds = %9
  %46 = load %struct.student*, %struct.student** %3, align 8
  %47 = getelementptr inbounds %struct.student, %struct.student* %46, i32 0, i32 4
  store %struct.student* null, %struct.student** %47, align 8
  %48 = load %struct.student*, %struct.student** %1, align 8
  ret %struct.student* %48
}

; Function Attrs: noinline nounwind uwtable
define dso_local void @exchange(%struct.student* %0, %struct.student* %1) #0 {
  %3 = alloca %struct.student*, align 8
  %4 = alloca %struct.student*, align 8
  %5 = alloca i32, align 4
  store %struct.student* %0, %struct.student** %3, align 8
  store %struct.student* %1, %struct.student** %4, align 8
  %6 = load %struct.student*, %struct.student** %3, align 8
  %7 = getelementptr inbounds %struct.student, %struct.student* %6, i32 0, i32 0
  %8 = load i32, i32* %7, align 8
  store i32 %8, i32* %5, align 4
  %9 = load %struct.student*, %struct.student** %4, align 8
  %10 = getelementptr inbounds %struct.student, %struct.student* %9, i32 0, i32 0
  %11 = load i32, i32* %10, align 8
  %12 = load %struct.student*, %struct.student** %3, align 8
  %13 = getelementptr inbounds %struct.student, %struct.student* %12, i32 0, i32 0
  store i32 %11, i32* %13, align 8
  %14 = load i32, i32* %5, align 4
  %15 = load %struct.student*, %struct.student** %4, align 8
  %16 = getelementptr inbounds %struct.student, %struct.student* %15, i32 0, i32 0
  store i32 %14, i32* %16, align 8
  %17 = load %struct.student*, %struct.student** %3, align 8
  %18 = getelementptr inbounds %struct.student, %struct.student* %17, i32 0, i32 1
  %19 = load i32, i32* %18, align 4
  store i32 %19, i32* %5, align 4
  %20 = load %struct.student*, %struct.student** %4, align 8
  %21 = getelementptr inbounds %struct.student, %struct.student* %20, i32 0, i32 1
  %22 = load i32, i32* %21, align 4
  %23 = load %struct.student*, %struct.student** %3, align 8
  %24 = getelementptr inbounds %struct.student, %struct.student* %23, i32 0, i32 1
  store i32 %22, i32* %24, align 4
  %25 = load i32, i32* %5, align 4
  %26 = load %struct.student*, %struct.student** %4, align 8
  %27 = getelementptr inbounds %struct.student, %struct.student* %26, i32 0, i32 1
  store i32 %25, i32* %27, align 4
  %28 = load %struct.student*, %struct.student** %3, align 8
  %29 = getelementptr inbounds %struct.student, %struct.student* %28, i32 0, i32 2
  %30 = load i32, i32* %29, align 8
  store i32 %30, i32* %5, align 4
  %31 = load %struct.student*, %struct.student** %4, align 8
  %32 = getelementptr inbounds %struct.student, %struct.student* %31, i32 0, i32 2
  %33 = load i32, i32* %32, align 8
  %34 = load %struct.student*, %struct.student** %3, align 8
  %35 = getelementptr inbounds %struct.student, %struct.student* %34, i32 0, i32 2
  store i32 %33, i32* %35, align 8
  %36 = load i32, i32* %5, align 4
  %37 = load %struct.student*, %struct.student** %4, align 8
  %38 = getelementptr inbounds %struct.student, %struct.student* %37, i32 0, i32 2
  store i32 %36, i32* %38, align 8
  %39 = load %struct.student*, %struct.student** %3, align 8
  %40 = getelementptr inbounds %struct.student, %struct.student* %39, i32 0, i32 3
  %41 = load i32, i32* %40, align 4
  store i32 %41, i32* %5, align 4
  %42 = load %struct.student*, %struct.student** %4, align 8
  %43 = getelementptr inbounds %struct.student, %struct.student* %42, i32 0, i32 3
  %44 = load i32, i32* %43, align 4
  %45 = load %struct.student*, %struct.student** %3, align 8
  %46 = getelementptr inbounds %struct.student, %struct.student* %45, i32 0, i32 3
  store i32 %44, i32* %46, align 4
  %47 = load i32, i32* %5, align 4
  %48 = load %struct.student*, %struct.student** %4, align 8
  %49 = getelementptr inbounds %struct.student, %struct.student* %48, i32 0, i32 3
  store i32 %47, i32* %49, align 4
  ret void
}

; Function Attrs: noinline nounwind uwtable
define dso_local void @main() #0 {
  %1 = alloca %struct.student*, align 8
  %2 = alloca %struct.student*, align 8
  %3 = alloca %struct.student*, align 8
  %4 = alloca i32, align 4
  %5 = alloca i32, align 4
  %6 = call %struct.student* @creat()
  store %struct.student* %6, %struct.student** %1, align 8
  store %struct.student* %6, %struct.student** %3, align 8
  %7 = load %struct.student*, %struct.student** %3, align 8
  store %struct.student* %7, %struct.student** %1, align 8
  store i32 0, i32* %5, align 4
  br label %8

8:                                                ; preds = %53, %0
  %9 = load %struct.student*, %struct.student** %1, align 8
  %10 = getelementptr inbounds %struct.student, %struct.student* %9, i32 0, i32 4
  %11 = load %struct.student*, %struct.student** %10, align 8
  %12 = icmp ne %struct.student* %11, null
  %13 = zext i1 %12 to i32
  %14 = load i32, i32* %5, align 4
  %15 = icmp slt i32 %14, 3
  br i1 %15, label %16, label %59

16:                                               ; preds = %8
  %17 = load %struct.student*, %struct.student** %1, align 8
  %18 = getelementptr inbounds %struct.student, %struct.student* %17, i32 0, i32 3
  %19 = load i32, i32* %18, align 4
  store i32 %19, i32* %4, align 4
  %20 = load %struct.student*, %struct.student** %1, align 8
  %21 = getelementptr inbounds %struct.student, %struct.student* %20, i32 0, i32 4
  %22 = load %struct.student*, %struct.student** %21, align 8
  store %struct.student* %22, %struct.student** %2, align 8
  br label %23

23:                                               ; preds = %48, %16
  %24 = load %struct.student*, %struct.student** %2, align 8
  %25 = icmp ne %struct.student* %24, null
  br i1 %25, label %26, label %52

26:                                               ; preds = %23
  %27 = load %struct.student*, %struct.student** %1, align 8
  %28 = getelementptr inbounds %struct.student, %struct.student* %27, i32 0, i32 3
  %29 = load i32, i32* %28, align 4
  %30 = load %struct.student*, %struct.student** %2, align 8
  %31 = getelementptr inbounds %struct.student, %struct.student* %30, i32 0, i32 3
  %32 = load i32, i32* %31, align 4
  %33 = icmp slt i32 %29, %32
  br i1 %33, label %34, label %38

34:                                               ; preds = %26
  %35 = load %struct.student*, %struct.student** %2, align 8
  %36 = getelementptr inbounds %struct.student, %struct.student* %35, i32 0, i32 3
  %37 = load i32, i32* %36, align 4
  store i32 %37, i32* %4, align 4
  br label %38

38:                                               ; preds = %34, %26
  %39 = load %struct.student*, %struct.student** %1, align 8
  %40 = getelementptr inbounds %struct.student, %struct.student* %39, i32 0, i32 3
  %41 = load i32, i32* %40, align 4
  %42 = load i32, i32* %4, align 4
  %43 = icmp ne i32 %41, %42
  br i1 %43, label %44, label %47

44:                                               ; preds = %38
  %45 = load %struct.student*, %struct.student** %1, align 8
  %46 = load %struct.student*, %struct.student** %2, align 8
  call void @exchange(%struct.student* %45, %struct.student* %46)
  br label %47

47:                                               ; preds = %44, %38
  br label %48

48:                                               ; preds = %47
  %49 = load %struct.student*, %struct.student** %2, align 8
  %50 = getelementptr inbounds %struct.student, %struct.student* %49, i32 0, i32 4
  %51 = load %struct.student*, %struct.student** %50, align 8
  store %struct.student* %51, %struct.student** %2, align 8
  br label %23

52:                                               ; preds = %23
  br label %53

53:                                               ; preds = %52
  %54 = load %struct.student*, %struct.student** %1, align 8
  %55 = getelementptr inbounds %struct.student, %struct.student* %54, i32 0, i32 4
  %56 = load %struct.student*, %struct.student** %55, align 8
  store %struct.student* %56, %struct.student** %1, align 8
  %57 = load i32, i32* %5, align 4
  %58 = add nsw i32 %57, 1
  store i32 %58, i32* %5, align 4
  br label %8

59:                                               ; preds = %8
  %60 = load %struct.student*, %struct.student** %3, align 8
  store %struct.student* %60, %struct.student** %1, align 8
  store i32 0, i32* %5, align 4
  br label %61

61:                                               ; preds = %72, %59
  %62 = load i32, i32* %5, align 4
  %63 = icmp slt i32 %62, 3
  br i1 %63, label %64, label %78

64:                                               ; preds = %61
  %65 = load %struct.student*, %struct.student** %1, align 8
  %66 = getelementptr inbounds %struct.student, %struct.student* %65, i32 0, i32 0
  %67 = load i32, i32* %66, align 8
  %68 = load %struct.student*, %struct.student** %1, align 8
  %69 = getelementptr inbounds %struct.student, %struct.student* %68, i32 0, i32 3
  %70 = load i32, i32* %69, align 4
  %71 = call i32 (i8*, ...) @printf(i8* getelementptr inbounds ([7 x i8], [7 x i8]* @.str.2, i64 0, i64 0), i32 %67, i32 %70)
  br label %72

72:                                               ; preds = %64
  %73 = load %struct.student*, %struct.student** %1, align 8
  %74 = getelementptr inbounds %struct.student, %struct.student* %73, i32 0, i32 4
  %75 = load %struct.student*, %struct.student** %74, align 8
  store %struct.student* %75, %struct.student** %1, align 8
  %76 = load i32, i32* %5, align 4
  %77 = add nsw i32 %76, 1
  store i32 %77, i32* %5, align 4
  br label %61

78:                                               ; preds = %61
  ret void
}